; Function Attrs: nounwind uwtable
define void @Abc_ObjSetReverseLevel(ptr noundef readonly captures(none) %0, i32 noundef %1) local_unnamed_addr #3 {
  %3 = load ptr, ptr %0, align 8
  %4 = getelementptr inbounds nuw i8, ptr %3, i64 288
  %5 = load ptr, ptr %4, align 8
  %6 = getelementptr inbounds nuw i8, ptr %0, i64 16
  %7 = load i32, ptr %6, align 8
  %8 = add nsw i32 %7, 1
  tail call fastcc void @Vec_IntFillExtra(ptr noundef %5, i32 noundef %8)
  %9 = load ptr, ptr %4, align 8
  %10 = load i32, ptr %6, align 8
  %11 = getelementptr i8, ptr %9, i64 8
  %.val = load ptr, ptr %11, align 8
  %12 = sext i32 %10 to i64
  %13 = getelementptr inbounds i32, ptr %.val, i64 %12
  store i32 %1, ptr %13, align 4
  ret void
}